ARM GAS  /tmp/ccx2wa6T.s 			page 1


   1              		.cpu cortex-m4
   2              		.arch armv7e-m
   3              		.fpu fpv4-sp-d16
   4              		.eabi_attribute 27, 1
   5              		.eabi_attribute 28, 1
   6              		.eabi_attribute 20, 1
   7              		.eabi_attribute 21, 1
   8              		.eabi_attribute 23, 3
   9              		.eabi_attribute 24, 1
  10              		.eabi_attribute 25, 1
  11              		.eabi_attribute 26, 1
  12              		.eabi_attribute 30, 1
  13              		.eabi_attribute 34, 1
  14              		.eabi_attribute 18, 4
  15              		.file	"usart.c"
  16              		.text
  17              	.Ltext0:
  18              		.cfi_sections	.debug_frame
  19              		.file 1 "Core/Src/usart.c"
  20              		.section	.text.MX_LPUART1_UART_Init,"ax",%progbits
  21              		.align	1
  22              		.global	MX_LPUART1_UART_Init
  23              		.syntax unified
  24              		.thumb
  25              		.thumb_func
  27              	MX_LPUART1_UART_Init:
  28              	.LFB132:
   1:Core/Src/usart.c **** /* USER CODE BEGIN Header */
   2:Core/Src/usart.c **** /**
   3:Core/Src/usart.c ****   ******************************************************************************
   4:Core/Src/usart.c ****   * @file    usart.c
   5:Core/Src/usart.c ****   * @brief   This file provides code for the configuration
   6:Core/Src/usart.c ****   *          of the USART instances.
   7:Core/Src/usart.c ****   ******************************************************************************
   8:Core/Src/usart.c ****   * @attention
   9:Core/Src/usart.c ****   *
  10:Core/Src/usart.c ****   * Copyright (c) 2023 STMicroelectronics.
  11:Core/Src/usart.c ****   * All rights reserved.
  12:Core/Src/usart.c ****   *
  13:Core/Src/usart.c ****   * This software is licensed under terms that can be found in the LICENSE file
  14:Core/Src/usart.c ****   * in the root directory of this software component.
  15:Core/Src/usart.c ****   * If no LICENSE file comes with this software, it is provided AS-IS.
  16:Core/Src/usart.c ****   *
  17:Core/Src/usart.c ****   ******************************************************************************
  18:Core/Src/usart.c ****   */
  19:Core/Src/usart.c **** /* USER CODE END Header */
  20:Core/Src/usart.c **** /* Includes ------------------------------------------------------------------*/
  21:Core/Src/usart.c **** #include "usart.h"
  22:Core/Src/usart.c **** 
  23:Core/Src/usart.c **** /* USER CODE BEGIN 0 */
  24:Core/Src/usart.c **** 
  25:Core/Src/usart.c **** /* USER CODE END 0 */
  26:Core/Src/usart.c **** 
  27:Core/Src/usart.c **** UART_HandleTypeDef hlpuart1;
  28:Core/Src/usart.c **** 
  29:Core/Src/usart.c **** /* LPUART1 init function */
  30:Core/Src/usart.c **** 
ARM GAS  /tmp/ccx2wa6T.s 			page 2


  31:Core/Src/usart.c **** void MX_LPUART1_UART_Init(void)
  32:Core/Src/usart.c **** {
  29              		.loc 1 32 1 view -0
  30              		.cfi_startproc
  31              		@ args = 0, pretend = 0, frame = 0
  32              		@ frame_needed = 0, uses_anonymous_args = 0
  33 0000 08B5     		push	{r3, lr}
  34              		.cfi_def_cfa_offset 8
  35              		.cfi_offset 3, -8
  36              		.cfi_offset 14, -4
  33:Core/Src/usart.c **** 
  34:Core/Src/usart.c ****   /* USER CODE BEGIN LPUART1_Init 0 */
  35:Core/Src/usart.c **** 
  36:Core/Src/usart.c ****   /* USER CODE END LPUART1_Init 0 */
  37:Core/Src/usart.c **** 
  38:Core/Src/usart.c ****   /* USER CODE BEGIN LPUART1_Init 1 */
  39:Core/Src/usart.c **** 
  40:Core/Src/usart.c ****   /* USER CODE END LPUART1_Init 1 */
  41:Core/Src/usart.c ****   hlpuart1.Instance = LPUART1;
  37              		.loc 1 41 3 view .LVU1
  38              		.loc 1 41 21 is_stmt 0 view .LVU2
  39 0002 1748     		ldr	r0, .L11
  40 0004 174B     		ldr	r3, .L11+4
  41 0006 0360     		str	r3, [r0]
  42:Core/Src/usart.c ****   hlpuart1.Init.BaudRate = 115200;
  42              		.loc 1 42 3 is_stmt 1 view .LVU3
  43              		.loc 1 42 26 is_stmt 0 view .LVU4
  44 0008 4FF4E133 		mov	r3, #115200
  45 000c 4360     		str	r3, [r0, #4]
  43:Core/Src/usart.c ****   hlpuart1.Init.WordLength = UART_WORDLENGTH_8B;
  46              		.loc 1 43 3 is_stmt 1 view .LVU5
  47              		.loc 1 43 28 is_stmt 0 view .LVU6
  48 000e 0023     		movs	r3, #0
  49 0010 8360     		str	r3, [r0, #8]
  44:Core/Src/usart.c ****   hlpuart1.Init.StopBits = UART_STOPBITS_1;
  50              		.loc 1 44 3 is_stmt 1 view .LVU7
  51              		.loc 1 44 26 is_stmt 0 view .LVU8
  52 0012 C360     		str	r3, [r0, #12]
  45:Core/Src/usart.c ****   hlpuart1.Init.Parity = UART_PARITY_NONE;
  53              		.loc 1 45 3 is_stmt 1 view .LVU9
  54              		.loc 1 45 24 is_stmt 0 view .LVU10
  55 0014 0361     		str	r3, [r0, #16]
  46:Core/Src/usart.c ****   hlpuart1.Init.Mode = UART_MODE_TX_RX;
  56              		.loc 1 46 3 is_stmt 1 view .LVU11
  57              		.loc 1 46 22 is_stmt 0 view .LVU12
  58 0016 0C22     		movs	r2, #12
  59 0018 4261     		str	r2, [r0, #20]
  47:Core/Src/usart.c ****   hlpuart1.Init.HwFlowCtl = UART_HWCONTROL_NONE;
  60              		.loc 1 47 3 is_stmt 1 view .LVU13
  61              		.loc 1 47 27 is_stmt 0 view .LVU14
  62 001a 8361     		str	r3, [r0, #24]
  48:Core/Src/usart.c ****   hlpuart1.Init.OneBitSampling = UART_ONE_BIT_SAMPLE_DISABLE;
  63              		.loc 1 48 3 is_stmt 1 view .LVU15
  64              		.loc 1 48 32 is_stmt 0 view .LVU16
  65 001c 0362     		str	r3, [r0, #32]
  49:Core/Src/usart.c ****   hlpuart1.Init.ClockPrescaler = UART_PRESCALER_DIV1;
  66              		.loc 1 49 3 is_stmt 1 view .LVU17
ARM GAS  /tmp/ccx2wa6T.s 			page 3


  67              		.loc 1 49 32 is_stmt 0 view .LVU18
  68 001e 4362     		str	r3, [r0, #36]
  50:Core/Src/usart.c ****   hlpuart1.AdvancedInit.AdvFeatureInit = UART_ADVFEATURE_NO_INIT;
  69              		.loc 1 50 3 is_stmt 1 view .LVU19
  70              		.loc 1 50 40 is_stmt 0 view .LVU20
  71 0020 8362     		str	r3, [r0, #40]
  51:Core/Src/usart.c ****   if (HAL_UART_Init(&hlpuart1) != HAL_OK)
  72              		.loc 1 51 3 is_stmt 1 view .LVU21
  73              		.loc 1 51 7 is_stmt 0 view .LVU22
  74 0022 FFF7FEFF 		bl	HAL_UART_Init
  75              	.LVL0:
  76              		.loc 1 51 6 view .LVU23
  77 0026 70B9     		cbnz	r0, .L7
  78              	.L2:
  52:Core/Src/usart.c ****   {
  53:Core/Src/usart.c ****     Error_Handler();
  54:Core/Src/usart.c ****   }
  55:Core/Src/usart.c ****   if (HAL_UARTEx_SetTxFifoThreshold(&hlpuart1, UART_TXFIFO_THRESHOLD_1_8) != HAL_OK)
  79              		.loc 1 55 3 is_stmt 1 view .LVU24
  80              		.loc 1 55 7 is_stmt 0 view .LVU25
  81 0028 0021     		movs	r1, #0
  82 002a 0D48     		ldr	r0, .L11
  83 002c FFF7FEFF 		bl	HAL_UARTEx_SetTxFifoThreshold
  84              	.LVL1:
  85              		.loc 1 55 6 view .LVU26
  86 0030 60B9     		cbnz	r0, .L8
  87              	.L3:
  56:Core/Src/usart.c ****   {
  57:Core/Src/usart.c ****     Error_Handler();
  58:Core/Src/usart.c ****   }
  59:Core/Src/usart.c ****   if (HAL_UARTEx_SetRxFifoThreshold(&hlpuart1, UART_RXFIFO_THRESHOLD_1_8) != HAL_OK)
  88              		.loc 1 59 3 is_stmt 1 view .LVU27
  89              		.loc 1 59 7 is_stmt 0 view .LVU28
  90 0032 0021     		movs	r1, #0
  91 0034 0A48     		ldr	r0, .L11
  92 0036 FFF7FEFF 		bl	HAL_UARTEx_SetRxFifoThreshold
  93              	.LVL2:
  94              		.loc 1 59 6 view .LVU29
  95 003a 50B9     		cbnz	r0, .L9
  96              	.L4:
  60:Core/Src/usart.c ****   {
  61:Core/Src/usart.c ****     Error_Handler();
  62:Core/Src/usart.c ****   }
  63:Core/Src/usart.c ****   if (HAL_UARTEx_DisableFifoMode(&hlpuart1) != HAL_OK)
  97              		.loc 1 63 3 is_stmt 1 view .LVU30
  98              		.loc 1 63 7 is_stmt 0 view .LVU31
  99 003c 0848     		ldr	r0, .L11
 100 003e FFF7FEFF 		bl	HAL_UARTEx_DisableFifoMode
 101              	.LVL3:
 102              		.loc 1 63 6 view .LVU32
 103 0042 48B9     		cbnz	r0, .L10
 104              	.L1:
  64:Core/Src/usart.c ****   {
  65:Core/Src/usart.c ****     Error_Handler();
  66:Core/Src/usart.c ****   }
  67:Core/Src/usart.c ****   /* USER CODE BEGIN LPUART1_Init 2 */
  68:Core/Src/usart.c **** 
ARM GAS  /tmp/ccx2wa6T.s 			page 4


  69:Core/Src/usart.c ****   /* USER CODE END LPUART1_Init 2 */
  70:Core/Src/usart.c **** 
  71:Core/Src/usart.c **** }
 105              		.loc 1 71 1 view .LVU33
 106 0044 08BD     		pop	{r3, pc}
 107              	.L7:
  53:Core/Src/usart.c ****   }
 108              		.loc 1 53 5 is_stmt 1 view .LVU34
 109 0046 FFF7FEFF 		bl	Error_Handler
 110              	.LVL4:
 111 004a EDE7     		b	.L2
 112              	.L8:
  57:Core/Src/usart.c ****   }
 113              		.loc 1 57 5 view .LVU35
 114 004c FFF7FEFF 		bl	Error_Handler
 115              	.LVL5:
 116 0050 EFE7     		b	.L3
 117              	.L9:
  61:Core/Src/usart.c ****   }
 118              		.loc 1 61 5 view .LVU36
 119 0052 FFF7FEFF 		bl	Error_Handler
 120              	.LVL6:
 121 0056 F1E7     		b	.L4
 122              	.L10:
  65:Core/Src/usart.c ****   }
 123              		.loc 1 65 5 view .LVU37
 124 0058 FFF7FEFF 		bl	Error_Handler
 125              	.LVL7:
 126              		.loc 1 71 1 is_stmt 0 view .LVU38
 127 005c F2E7     		b	.L1
 128              	.L12:
 129 005e 00BF     		.align	2
 130              	.L11:
 131 0060 00000000 		.word	hlpuart1
 132 0064 00800040 		.word	1073774592
 133              		.cfi_endproc
 134              	.LFE132:
 136              		.section	.text.HAL_UART_MspInit,"ax",%progbits
 137              		.align	1
 138              		.global	HAL_UART_MspInit
 139              		.syntax unified
 140              		.thumb
 141              		.thumb_func
 143              	HAL_UART_MspInit:
 144              	.LVL8:
 145              	.LFB133:
  72:Core/Src/usart.c **** 
  73:Core/Src/usart.c **** void HAL_UART_MspInit(UART_HandleTypeDef* uartHandle)
  74:Core/Src/usart.c **** {
 146              		.loc 1 74 1 is_stmt 1 view -0
 147              		.cfi_startproc
 148              		@ args = 0, pretend = 0, frame = 112
 149              		@ frame_needed = 0, uses_anonymous_args = 0
 150              		.loc 1 74 1 is_stmt 0 view .LVU40
 151 0000 10B5     		push	{r4, lr}
 152              		.cfi_def_cfa_offset 8
 153              		.cfi_offset 4, -8
ARM GAS  /tmp/ccx2wa6T.s 			page 5


 154              		.cfi_offset 14, -4
 155 0002 9CB0     		sub	sp, sp, #112
 156              		.cfi_def_cfa_offset 120
 157 0004 0446     		mov	r4, r0
  75:Core/Src/usart.c **** 
  76:Core/Src/usart.c ****   GPIO_InitTypeDef GPIO_InitStruct = {0};
 158              		.loc 1 76 3 is_stmt 1 view .LVU41
 159              		.loc 1 76 20 is_stmt 0 view .LVU42
 160 0006 0021     		movs	r1, #0
 161 0008 1791     		str	r1, [sp, #92]
 162 000a 1891     		str	r1, [sp, #96]
 163 000c 1991     		str	r1, [sp, #100]
 164 000e 1A91     		str	r1, [sp, #104]
 165 0010 1B91     		str	r1, [sp, #108]
  77:Core/Src/usart.c ****   RCC_PeriphCLKInitTypeDef PeriphClkInit = {0};
 166              		.loc 1 77 3 is_stmt 1 view .LVU43
 167              		.loc 1 77 28 is_stmt 0 view .LVU44
 168 0012 5422     		movs	r2, #84
 169 0014 02A8     		add	r0, sp, #8
 170              	.LVL9:
 171              		.loc 1 77 28 view .LVU45
 172 0016 FFF7FEFF 		bl	memset
 173              	.LVL10:
  78:Core/Src/usart.c ****   if(uartHandle->Instance==LPUART1)
 174              		.loc 1 78 3 is_stmt 1 view .LVU46
 175              		.loc 1 78 16 is_stmt 0 view .LVU47
 176 001a 2268     		ldr	r2, [r4]
 177              		.loc 1 78 5 view .LVU48
 178 001c 174B     		ldr	r3, .L19
 179 001e 9A42     		cmp	r2, r3
 180 0020 01D0     		beq	.L17
 181              	.L13:
  79:Core/Src/usart.c ****   {
  80:Core/Src/usart.c ****   /* USER CODE BEGIN LPUART1_MspInit 0 */
  81:Core/Src/usart.c **** 
  82:Core/Src/usart.c ****   /* USER CODE END LPUART1_MspInit 0 */
  83:Core/Src/usart.c **** 
  84:Core/Src/usart.c ****   /** Initializes the peripherals clocks
  85:Core/Src/usart.c ****   */
  86:Core/Src/usart.c ****     PeriphClkInit.PeriphClockSelection = RCC_PERIPHCLK_LPUART1;
  87:Core/Src/usart.c ****     PeriphClkInit.Lpuart1ClockSelection = RCC_LPUART1CLKSOURCE_PCLK1;
  88:Core/Src/usart.c ****     if (HAL_RCCEx_PeriphCLKConfig(&PeriphClkInit) != HAL_OK)
  89:Core/Src/usart.c ****     {
  90:Core/Src/usart.c ****       Error_Handler();
  91:Core/Src/usart.c ****     }
  92:Core/Src/usart.c **** 
  93:Core/Src/usart.c ****     /* LPUART1 clock enable */
  94:Core/Src/usart.c ****     __HAL_RCC_LPUART1_CLK_ENABLE();
  95:Core/Src/usart.c **** 
  96:Core/Src/usart.c ****     __HAL_RCC_GPIOA_CLK_ENABLE();
  97:Core/Src/usart.c ****     /**LPUART1 GPIO Configuration
  98:Core/Src/usart.c ****     PA2     ------> LPUART1_TX
  99:Core/Src/usart.c ****     PA3     ------> LPUART1_RX
 100:Core/Src/usart.c ****     */
 101:Core/Src/usart.c ****     GPIO_InitStruct.Pin = LPUART1_TX_Pin|LPUART1_RX_Pin;
 102:Core/Src/usart.c ****     GPIO_InitStruct.Mode = GPIO_MODE_AF_PP;
 103:Core/Src/usart.c ****     GPIO_InitStruct.Pull = GPIO_NOPULL;
ARM GAS  /tmp/ccx2wa6T.s 			page 6


 104:Core/Src/usart.c ****     GPIO_InitStruct.Speed = GPIO_SPEED_FREQ_LOW;
 105:Core/Src/usart.c ****     GPIO_InitStruct.Alternate = GPIO_AF12_LPUART1;
 106:Core/Src/usart.c ****     HAL_GPIO_Init(GPIOA, &GPIO_InitStruct);
 107:Core/Src/usart.c **** 
 108:Core/Src/usart.c ****   /* USER CODE BEGIN LPUART1_MspInit 1 */
 109:Core/Src/usart.c **** 
 110:Core/Src/usart.c ****   /* USER CODE END LPUART1_MspInit 1 */
 111:Core/Src/usart.c ****   }
 112:Core/Src/usart.c **** }
 182              		.loc 1 112 1 view .LVU49
 183 0022 1CB0     		add	sp, sp, #112
 184              		.cfi_remember_state
 185              		.cfi_def_cfa_offset 8
 186              		@ sp needed
 187 0024 10BD     		pop	{r4, pc}
 188              	.LVL11:
 189              	.L17:
 190              		.cfi_restore_state
  86:Core/Src/usart.c ****     PeriphClkInit.Lpuart1ClockSelection = RCC_LPUART1CLKSOURCE_PCLK1;
 191              		.loc 1 86 5 is_stmt 1 view .LVU50
  86:Core/Src/usart.c ****     PeriphClkInit.Lpuart1ClockSelection = RCC_LPUART1CLKSOURCE_PCLK1;
 192              		.loc 1 86 40 is_stmt 0 view .LVU51
 193 0026 2023     		movs	r3, #32
 194 0028 0293     		str	r3, [sp, #8]
  87:Core/Src/usart.c ****     if (HAL_RCCEx_PeriphCLKConfig(&PeriphClkInit) != HAL_OK)
 195              		.loc 1 87 5 is_stmt 1 view .LVU52
  88:Core/Src/usart.c ****     {
 196              		.loc 1 88 5 view .LVU53
  88:Core/Src/usart.c ****     {
 197              		.loc 1 88 9 is_stmt 0 view .LVU54
 198 002a 02A8     		add	r0, sp, #8
 199 002c FFF7FEFF 		bl	HAL_RCCEx_PeriphCLKConfig
 200              	.LVL12:
  88:Core/Src/usart.c ****     {
 201              		.loc 1 88 8 view .LVU55
 202 0030 00BB     		cbnz	r0, .L18
 203              	.L15:
  94:Core/Src/usart.c **** 
 204              		.loc 1 94 5 is_stmt 1 view .LVU56
 205              	.LBB2:
  94:Core/Src/usart.c **** 
 206              		.loc 1 94 5 view .LVU57
  94:Core/Src/usart.c **** 
 207              		.loc 1 94 5 view .LVU58
 208 0032 134B     		ldr	r3, .L19+4
 209 0034 DA6D     		ldr	r2, [r3, #92]
 210 0036 42F00102 		orr	r2, r2, #1
 211 003a DA65     		str	r2, [r3, #92]
  94:Core/Src/usart.c **** 
 212              		.loc 1 94 5 view .LVU59
 213 003c DA6D     		ldr	r2, [r3, #92]
 214 003e 02F00102 		and	r2, r2, #1
 215 0042 0092     		str	r2, [sp]
  94:Core/Src/usart.c **** 
 216              		.loc 1 94 5 view .LVU60
 217 0044 009A     		ldr	r2, [sp]
 218              	.LBE2:
ARM GAS  /tmp/ccx2wa6T.s 			page 7


  94:Core/Src/usart.c **** 
 219              		.loc 1 94 5 view .LVU61
  96:Core/Src/usart.c ****     /**LPUART1 GPIO Configuration
 220              		.loc 1 96 5 view .LVU62
 221              	.LBB3:
  96:Core/Src/usart.c ****     /**LPUART1 GPIO Configuration
 222              		.loc 1 96 5 view .LVU63
  96:Core/Src/usart.c ****     /**LPUART1 GPIO Configuration
 223              		.loc 1 96 5 view .LVU64
 224 0046 DA6C     		ldr	r2, [r3, #76]
 225 0048 42F00102 		orr	r2, r2, #1
 226 004c DA64     		str	r2, [r3, #76]
  96:Core/Src/usart.c ****     /**LPUART1 GPIO Configuration
 227              		.loc 1 96 5 view .LVU65
 228 004e DB6C     		ldr	r3, [r3, #76]
 229 0050 03F00103 		and	r3, r3, #1
 230 0054 0193     		str	r3, [sp, #4]
  96:Core/Src/usart.c ****     /**LPUART1 GPIO Configuration
 231              		.loc 1 96 5 view .LVU66
 232 0056 019B     		ldr	r3, [sp, #4]
 233              	.LBE3:
  96:Core/Src/usart.c ****     /**LPUART1 GPIO Configuration
 234              		.loc 1 96 5 view .LVU67
 101:Core/Src/usart.c ****     GPIO_InitStruct.Mode = GPIO_MODE_AF_PP;
 235              		.loc 1 101 5 view .LVU68
 101:Core/Src/usart.c ****     GPIO_InitStruct.Mode = GPIO_MODE_AF_PP;
 236              		.loc 1 101 25 is_stmt 0 view .LVU69
 237 0058 0C23     		movs	r3, #12
 238 005a 1793     		str	r3, [sp, #92]
 102:Core/Src/usart.c ****     GPIO_InitStruct.Pull = GPIO_NOPULL;
 239              		.loc 1 102 5 is_stmt 1 view .LVU70
 102:Core/Src/usart.c ****     GPIO_InitStruct.Pull = GPIO_NOPULL;
 240              		.loc 1 102 26 is_stmt 0 view .LVU71
 241 005c 0222     		movs	r2, #2
 242 005e 1892     		str	r2, [sp, #96]
 103:Core/Src/usart.c ****     GPIO_InitStruct.Speed = GPIO_SPEED_FREQ_LOW;
 243              		.loc 1 103 5 is_stmt 1 view .LVU72
 103:Core/Src/usart.c ****     GPIO_InitStruct.Speed = GPIO_SPEED_FREQ_LOW;
 244              		.loc 1 103 26 is_stmt 0 view .LVU73
 245 0060 0022     		movs	r2, #0
 246 0062 1992     		str	r2, [sp, #100]
 104:Core/Src/usart.c ****     GPIO_InitStruct.Alternate = GPIO_AF12_LPUART1;
 247              		.loc 1 104 5 is_stmt 1 view .LVU74
 104:Core/Src/usart.c ****     GPIO_InitStruct.Alternate = GPIO_AF12_LPUART1;
 248              		.loc 1 104 27 is_stmt 0 view .LVU75
 249 0064 1A92     		str	r2, [sp, #104]
 105:Core/Src/usart.c ****     HAL_GPIO_Init(GPIOA, &GPIO_InitStruct);
 250              		.loc 1 105 5 is_stmt 1 view .LVU76
 105:Core/Src/usart.c ****     HAL_GPIO_Init(GPIOA, &GPIO_InitStruct);
 251              		.loc 1 105 31 is_stmt 0 view .LVU77
 252 0066 1B93     		str	r3, [sp, #108]
 106:Core/Src/usart.c **** 
 253              		.loc 1 106 5 is_stmt 1 view .LVU78
 254 0068 17A9     		add	r1, sp, #92
 255 006a 4FF09040 		mov	r0, #1207959552
 256 006e FFF7FEFF 		bl	HAL_GPIO_Init
 257              	.LVL13:
ARM GAS  /tmp/ccx2wa6T.s 			page 8


 258              		.loc 1 112 1 is_stmt 0 view .LVU79
 259 0072 D6E7     		b	.L13
 260              	.L18:
  90:Core/Src/usart.c ****     }
 261              		.loc 1 90 7 is_stmt 1 view .LVU80
 262 0074 FFF7FEFF 		bl	Error_Handler
 263              	.LVL14:
 264 0078 DBE7     		b	.L15
 265              	.L20:
 266 007a 00BF     		.align	2
 267              	.L19:
 268 007c 00800040 		.word	1073774592
 269 0080 00100240 		.word	1073876992
 270              		.cfi_endproc
 271              	.LFE133:
 273              		.section	.text.HAL_UART_MspDeInit,"ax",%progbits
 274              		.align	1
 275              		.global	HAL_UART_MspDeInit
 276              		.syntax unified
 277              		.thumb
 278              		.thumb_func
 280              	HAL_UART_MspDeInit:
 281              	.LVL15:
 282              	.LFB134:
 113:Core/Src/usart.c **** 
 114:Core/Src/usart.c **** void HAL_UART_MspDeInit(UART_HandleTypeDef* uartHandle)
 115:Core/Src/usart.c **** {
 283              		.loc 1 115 1 view -0
 284              		.cfi_startproc
 285              		@ args = 0, pretend = 0, frame = 0
 286              		@ frame_needed = 0, uses_anonymous_args = 0
 287              		.loc 1 115 1 is_stmt 0 view .LVU82
 288 0000 08B5     		push	{r3, lr}
 289              		.cfi_def_cfa_offset 8
 290              		.cfi_offset 3, -8
 291              		.cfi_offset 14, -4
 116:Core/Src/usart.c **** 
 117:Core/Src/usart.c ****   if(uartHandle->Instance==LPUART1)
 292              		.loc 1 117 3 is_stmt 1 view .LVU83
 293              		.loc 1 117 16 is_stmt 0 view .LVU84
 294 0002 0268     		ldr	r2, [r0]
 295              		.loc 1 117 5 view .LVU85
 296 0004 074B     		ldr	r3, .L25
 297 0006 9A42     		cmp	r2, r3
 298 0008 00D0     		beq	.L24
 299              	.LVL16:
 300              	.L21:
 118:Core/Src/usart.c ****   {
 119:Core/Src/usart.c ****   /* USER CODE BEGIN LPUART1_MspDeInit 0 */
 120:Core/Src/usart.c **** 
 121:Core/Src/usart.c ****   /* USER CODE END LPUART1_MspDeInit 0 */
 122:Core/Src/usart.c ****     /* Peripheral clock disable */
 123:Core/Src/usart.c ****     __HAL_RCC_LPUART1_CLK_DISABLE();
 124:Core/Src/usart.c **** 
 125:Core/Src/usart.c ****     /**LPUART1 GPIO Configuration
 126:Core/Src/usart.c ****     PA2     ------> LPUART1_TX
 127:Core/Src/usart.c ****     PA3     ------> LPUART1_RX
ARM GAS  /tmp/ccx2wa6T.s 			page 9


 128:Core/Src/usart.c ****     */
 129:Core/Src/usart.c ****     HAL_GPIO_DeInit(GPIOA, LPUART1_TX_Pin|LPUART1_RX_Pin);
 130:Core/Src/usart.c **** 
 131:Core/Src/usart.c ****   /* USER CODE BEGIN LPUART1_MspDeInit 1 */
 132:Core/Src/usart.c **** 
 133:Core/Src/usart.c ****   /* USER CODE END LPUART1_MspDeInit 1 */
 134:Core/Src/usart.c ****   }
 135:Core/Src/usart.c **** }
 301              		.loc 1 135 1 view .LVU86
 302 000a 08BD     		pop	{r3, pc}
 303              	.LVL17:
 304              	.L24:
 123:Core/Src/usart.c **** 
 305              		.loc 1 123 5 is_stmt 1 view .LVU87
 306 000c 064A     		ldr	r2, .L25+4
 307 000e D36D     		ldr	r3, [r2, #92]
 308 0010 23F00103 		bic	r3, r3, #1
 309 0014 D365     		str	r3, [r2, #92]
 129:Core/Src/usart.c **** 
 310              		.loc 1 129 5 view .LVU88
 311 0016 0C21     		movs	r1, #12
 312 0018 4FF09040 		mov	r0, #1207959552
 313              	.LVL18:
 129:Core/Src/usart.c **** 
 314              		.loc 1 129 5 is_stmt 0 view .LVU89
 315 001c FFF7FEFF 		bl	HAL_GPIO_DeInit
 316              	.LVL19:
 317              		.loc 1 135 1 view .LVU90
 318 0020 F3E7     		b	.L21
 319              	.L26:
 320 0022 00BF     		.align	2
 321              	.L25:
 322 0024 00800040 		.word	1073774592
 323 0028 00100240 		.word	1073876992
 324              		.cfi_endproc
 325              	.LFE134:
 327              		.global	hlpuart1
 328              		.section	.bss.hlpuart1,"aw",%nobits
 329              		.align	2
 332              	hlpuart1:
 333 0000 00000000 		.space	144
 333      00000000 
 333      00000000 
 333      00000000 
 333      00000000 
 334              		.text
 335              	.Letext0:
 336              		.file 2 "/home/matteo-tramontina/.config/Code/User/globalStorage/bmd.stm32-for-vscode/@xpack-dev-t
 337              		.file 3 "/home/matteo-tramontina/.config/Code/User/globalStorage/bmd.stm32-for-vscode/@xpack-dev-t
 338              		.file 4 "Drivers/CMSIS/Device/ST/STM32G4xx/Include/stm32g474xx.h"
 339              		.file 5 "Drivers/STM32G4xx_HAL_Driver/Inc/stm32g4xx_hal_def.h"
 340              		.file 6 "Drivers/STM32G4xx_HAL_Driver/Inc/stm32g4xx_hal_rcc_ex.h"
 341              		.file 7 "Drivers/STM32G4xx_HAL_Driver/Inc/stm32g4xx_hal_gpio.h"
 342              		.file 8 "Drivers/STM32G4xx_HAL_Driver/Inc/stm32g4xx_hal_dma.h"
 343              		.file 9 "Drivers/STM32G4xx_HAL_Driver/Inc/stm32g4xx_hal_uart.h"
 344              		.file 10 "Drivers/STM32G4xx_HAL_Driver/Inc/stm32g4xx_hal_uart_ex.h"
 345              		.file 11 "Core/Inc/usart.h"
ARM GAS  /tmp/ccx2wa6T.s 			page 10


 346              		.file 12 "Core/Inc/main.h"
 347              		.file 13 "<built-in>"
ARM GAS  /tmp/ccx2wa6T.s 			page 11

